; Function Attrs: mustprogress uwtable
define noundef zeroext i1 @_ZN2cv18GStreamingCompiled4Priv4pullEOSt6vectorINS_4util7variantIJPNS3_8optionalINS_3MatEEEPNS5_INS_4RMatEEEPNS5_INS_10MediaFrameEEEPNS5_INS_7Scalar_IdEEEENS_6detail6OptRefINSJ_9VectorRefEEENSK_INSJ_9OpaqueRefEEEEEESaISP_EE(ptr noundef nonnull readonly align 8 captures(none) dereferenceable(104) %0, ptr noundef nonnull align 8 dereferenceable(24) %1) local_unnamed_addr #3 align 2 {
  %3 = getelementptr inbounds nuw i8, ptr %0, i64 48
  %4 = load ptr, ptr %3, align 8, !tbaa !3
  %5 = load ptr, ptr %4, align 8, !tbaa !8
  %6 = getelementptr inbounds nuw i8, ptr %5, i64 40
  %7 = load ptr, ptr %6, align 8
  %8 = tail call noundef zeroext i1 %7(ptr noundef nonnull align 8 dereferenceable(137) %4, ptr noundef nonnull align 8 dereferenceable(24) %1)
  ret i1 %8
}